   1               		.file	"queue.c"
   2               	__SREG__ = 0x3f
   3               	__SP_H__ = 0x3e
   4               	__SP_L__ = 0x3d
   5               	__CCP__  = 0x34
   6               	__tmp_reg__ = 0
   7               	__zero_reg__ = 1
  15               	.Ltext0:
  16               	.global	uxQueueMessagesWaiting
  18               	uxQueueMessagesWaiting:
  19               	.LFB11:
  20               	.LM1:
  21               	.LVL0:
  22               	/* prologue: function */
  23               	/* frame size = 0 */
  24               	.LM2:
  25               	/* #APP */
  26               	 ;  1585 "../../Source/queue.c" 1
  27 0000 0FB6      		in		__tmp_reg__, __SREG__
  28               	 ;  0 "" 2
  29               	 ;  1585 "../../Source/queue.c" 1
  30 0002 F894      		cli
  31               	 ;  0 "" 2
  32               	 ;  1585 "../../Source/queue.c" 1
  33 0004 0F92      		push	__tmp_reg__
  34               	 ;  0 "" 2
  35               	.LM3:
  36               	/* #NOAPP */
  37 0006 FC01      		movw r30,r24
  38               	.LVL1:
  39 0008 828D      		ldd r24,Z+26
  40               	.LVL2:
  41               	.LM4:
  42               	/* #APP */
  43               	 ;  1589 "../../Source/queue.c" 1
  44 000a 0F90      		pop		__tmp_reg__
  45               	 ;  0 "" 2
  46               	 ;  1589 "../../Source/queue.c" 1
  47 000c 0FBE      		out		__SREG__, __tmp_reg__
  48               	 ;  0 "" 2
  49               	.LVL3:
  50               	/* epilogue start */
  51               	.LM5:
  52               	/* #NOAPP */
  53 000e 0895      		ret
  54               	.LFE11:
  56               	.global	uxQueueSpacesAvailable
  58               	uxQueueSpacesAvailable:
  59               	.LFB12:
  60               	.LM6:
  61               	.LVL4:
  62               	/* prologue: function */
  63               	/* frame size = 0 */
  64               	.LM7:
  65 0010 FC01      		movw r30,r24
  66               	.LVL5:
  67               	.LM8:
  68               	/* #APP */
  69               	 ;  1603 "../../Source/queue.c" 1
  70 0012 0FB6      		in		__tmp_reg__, __SREG__
  71               	 ;  0 "" 2
  72               	 ;  1603 "../../Source/queue.c" 1
  73 0014 F894      		cli
  74               	 ;  0 "" 2
  75               	 ;  1603 "../../Source/queue.c" 1
  76 0016 0F92      		push	__tmp_reg__
  77               	 ;  0 "" 2
  78               	.LM9:
  79               	/* #NOAPP */
  80 0018 928D      		ldd r25,Z+26
  81               	.LVL6:
  82               	.LM10:
  83               	/* #APP */
  84               	 ;  1607 "../../Source/queue.c" 1
  85 001a 0F90      		pop		__tmp_reg__
  86               	 ;  0 "" 2
  87               	 ;  1607 "../../Source/queue.c" 1
  88 001c 0FBE      		out		__SREG__, __tmp_reg__
  89               	 ;  0 "" 2
  90               	/* #NOAPP */
  91 001e 838D      		ldd r24,Z+27
  92               	.LM11:
  93 0020 891B      		sub r24,r25
  94               	/* epilogue start */
  95 0022 0895      		ret
  96               	.LFE12:
  98               	.global	uxQueueMessagesWaitingFromISR
 100               	uxQueueMessagesWaitingFromISR:
 101               	.LFB13:
 102               	.LM12:
 103               	.LVL7:
 104               	/* prologue: function */
 105               	/* frame size = 0 */
 106               	.LM13:
 107 0024 FC01      		movw r30,r24
 108               	.LVL8:
 109 0026 828D      		ldd r24,Z+26
 110               	.LVL9:
 111               	.LVL10:
 112               	/* epilogue start */
 113               	.LM14:
 114 0028 0895      		ret
 115               	.LFE13:
 117               	.global	xQueueIsQueueEmptyFromISR
 119               	xQueueIsQueueEmptyFromISR:
 120               	.LFB19:
 121               	.LM15:
 122               	.LVL11:
 123               	/* prologue: function */
 124               	/* frame size = 0 */
 125               	.LM16:
 126 002a FC01      		movw r30,r24
 127               	.LVL12:
 128 002c 828D      		ldd r24,Z+26
 129 002e 90E0      		ldi r25,lo8(0)
 130 0030 8823      		tst r24
 131 0032 01F4      		brne .L8
 132 0034 91E0      		ldi r25,lo8(1)
 133               	.L8:
 134               	.LM17:
 135 0036 892F      		mov r24,r25
 136               	/* epilogue start */
 137 0038 0895      		ret
 138               	.LFE19:
 140               	.global	xQueueIsQueueFullFromISR
 142               	xQueueIsQueueFullFromISR:
 143               	.LFB21:
 144               	.LM18:
 145               	.LVL13:
 146               	/* prologue: function */
 147               	/* frame size = 0 */
 148               	.LM19:
 149 003a FC01      		movw r30,r24
 150               	.LVL14:
 151 003c 928D      		ldd r25,Z+26
 152 003e 20E0      		ldi r18,lo8(0)
 153 0040 838D      		ldd r24,Z+27
 154 0042 9817      		cp r25,r24
 155 0044 01F4      		brne .L11
 156 0046 21E0      		ldi r18,lo8(1)
 157               	.L11:
 158               	.LM20:
 159 0048 822F      		mov r24,r18
 160               	/* epilogue start */
 161 004a 0895      		ret
 162               	.LFE21:
 165               	prvCopyDataToQueue:
 166               	.LFB15:
 167               	.LM21:
 168               	.LVL15:
 169 004c 0F93      		push r16
 170 004e 1F93      		push r17
 171 0050 CF93      		push r28
 172 0052 DF93      		push r29
 173               	/* prologue: function */
 174               	/* frame size = 0 */
 175 0054 EC01      		movw r28,r24
 176 0056 042F      		mov r16,r20
 177               	.LM22:
 178 0058 1A8D      		ldd r17,Y+26
 179               	.LVL16:
 180               	.LM23:
 181 005a 4C8D      		ldd r20,Y+28
 182               	.LVL17:
 183 005c 4423      		tst r20
 184 005e 01F0      		breq .L14
 185               	.LVL18:
 186               	.LM24:
 187 0060 0023      		tst r16
 188 0062 01F4      		brne .L15
 189               	.LM25:
 190 0064 8C81      		ldd r24,Y+4
 191 0066 9D81      		ldd r25,Y+5
 192 0068 50E0      		ldi r21,lo8(0)
 193 006a 0E94 0000 		call memcpy
 194               	.LVL19:
 195               	.LM26:
 196 006e 8C8D      		ldd r24,Y+28
 197 0070 2C81      		ldd r18,Y+4
 198 0072 3D81      		ldd r19,Y+5
 199 0074 280F      		add r18,r24
 200 0076 311D      		adc r19,__zero_reg__
 201 0078 3D83      		std Y+5,r19
 202 007a 2C83      		std Y+4,r18
 203               	.LM27:
 204 007c 8A81      		ldd r24,Y+2
 205 007e 9B81      		ldd r25,Y+3
 206 0080 2817      		cp r18,r24
 207 0082 3907      		cpc r19,r25
 208 0084 00F0      		brlo .L14
 209               	.LM28:
 210 0086 8881      		ld r24,Y
 211 0088 9981      		ldd r25,Y+1
 212 008a 9D83      		std Y+5,r25
 213 008c 8C83      		std Y+4,r24
 214 008e 00C0      		rjmp .L14
 215               	.LVL20:
 216               	.L15:
 217               	.LM29:
 218 0090 8E81      		ldd r24,Y+6
 219 0092 9F81      		ldd r25,Y+7
 220 0094 50E0      		ldi r21,lo8(0)
 221 0096 0E94 0000 		call memcpy
 222               	.LVL21:
 223               	.LM30:
 224 009a 8C8D      		ldd r24,Y+28
 225 009c 90E0      		ldi r25,lo8(0)
 226 009e 4427      		clr r20
 227 00a0 5527      		clr r21
 228 00a2 481B      		sub r20,r24
 229 00a4 590B      		sbc r21,r25
 230 00a6 8E81      		ldd r24,Y+6
 231 00a8 9F81      		ldd r25,Y+7
 232 00aa 840F      		add r24,r20
 233 00ac 951F      		adc r25,r21
 234 00ae 9F83      		std Y+7,r25
 235 00b0 8E83      		std Y+6,r24
 236               	.LM31:
 237 00b2 2881      		ld r18,Y
 238 00b4 3981      		ldd r19,Y+1
 239 00b6 8217      		cp r24,r18
 240 00b8 9307      		cpc r25,r19
 241 00ba 00F4      		brsh .L18
 242               	.LM32:
 243 00bc 8A81      		ldd r24,Y+2
 244 00be 9B81      		ldd r25,Y+3
 245 00c0 840F      		add r24,r20
 246 00c2 951F      		adc r25,r21
 247 00c4 9F83      		std Y+7,r25
 248 00c6 8E83      		std Y+6,r24
 249               	.L18:
 250               	.LM33:
 251 00c8 0230      		cpi r16,lo8(2)
 252 00ca 01F4      		brne .L14
 253               	.LM34:
 254 00cc 1111      		cpse r17,__zero_reg__
 255               	.LM35:
 256 00ce 1150      		subi r17,lo8(-(-1))
 257               	.LVL22:
 258               	.L14:
 259               	.LM36:
 260 00d0 1F5F      		subi r17,lo8(-(1))
 261 00d2 1A8F      		std Y+26,r17
 262               	.LM37:
 263 00d4 80E0      		ldi r24,lo8(0)
 264               	/* epilogue start */
 265 00d6 DF91      		pop r29
 266 00d8 CF91      		pop r28
 267               	.LVL23:
 268 00da 1F91      		pop r17
 269               	.LVL24:
 270 00dc 0F91      		pop r16
 271               	.LVL25:
 272 00de 0895      		ret
 273               	.LFE15:
 276               	prvCopyDataFromQueue:
 277               	.LFB16:
 278               	.LM38:
 279               	.LVL26:
 280               	/* prologue: function */
 281               	/* frame size = 0 */
 282 00e0 FC01      		movw r30,r24
 283 00e2 562F      		mov r21,r22
 284 00e4 A72F      		mov r26,r23
 285               	.LVL27:
 286               	.LM39:
 287 00e6 248D      		ldd r18,Z+28
 288 00e8 2223      		tst r18
 289 00ea 01F0      		breq .L24
 290               	.LVL28:
 291               	.LM40:
 292 00ec 8681      		ldd r24,Z+6
 293 00ee 9781      		ldd r25,Z+7
 294 00f0 820F      		add r24,r18
 295 00f2 911D      		adc r25,__zero_reg__
 296 00f4 9783      		std Z+7,r25
 297 00f6 8683      		std Z+6,r24
 298               	.LM41:
 299 00f8 2281      		ldd r18,Z+2
 300 00fa 3381      		ldd r19,Z+3
 301 00fc 8217      		cp r24,r18
 302 00fe 9307      		cpc r25,r19
 303 0100 00F0      		brlo .L22
 304               	.LM42:
 305 0102 8081      		ld r24,Z
 306 0104 9181      		ldd r25,Z+1
 307 0106 9783      		std Z+7,r25
 308 0108 8683      		std Z+6,r24
 309               	.L22:
 310               	.LM43:
 311 010a 448D      		ldd r20,Z+28
 312 010c 6681      		ldd r22,Z+6
 313 010e 7781      		ldd r23,Z+7
 314 0110 852F      		mov r24,r21
 315 0112 9A2F      		mov r25,r26
 316 0114 50E0      		ldi r21,lo8(0)
 317               	.LVL29:
 318 0116 0E94 0000 		call memcpy
 319               	.LVL30:
 320               	.L24:
 321 011a 0895      		ret
 322               	.LFE16:
 324               	.global	xQueuePeekFromISR
 326               	xQueuePeekFromISR:
 327               	.LFB10:
 328               	.LM44:
 329               	.LVL31:
 330 011c 0F93      		push r16
 331 011e 1F93      		push r17
 332 0120 CF93      		push r28
 333 0122 DF93      		push r29
 334               	/* prologue: function */
 335               	/* frame size = 0 */
 336               	.LM45:
 337 0124 EC01      		movw r28,r24
 338               	.LVL32:
 339               	.LM46:
 340 0126 8A8D      		ldd r24,Y+26
 341               	.LVL33:
 342 0128 8823      		tst r24
 343 012a 01F0      		breq .L27
 344               	.LM47:
 345 012c 0E81      		ldd r16,Y+6
 346 012e 1F81      		ldd r17,Y+7
 347               	.LVL34:
 348               	.LM48:
 349 0130 CE01      		movw r24,r28
 350 0132 0E94 0000 		call prvCopyDataFromQueue
 351               	.LVL35:
 352               	.LM49:
 353 0136 1F83      		std Y+7,r17
 354 0138 0E83      		std Y+6,r16
 355 013a 81E0      		ldi r24,lo8(1)
 356               	.LVL36:
 357               	.L27:
 358               	.LVL37:
 359               	/* epilogue start */
 360               	.LM50:
 361 013c DF91      		pop r29
 362 013e CF91      		pop r28
 363               	.LVL38:
 364 0140 1F91      		pop r17
 365 0142 0F91      		pop r16
 366               	.LVL39:
 367 0144 0895      		ret
 368               	.LFE10:
 370               	.global	xQueueCRReceiveFromISR
 372               	xQueueCRReceiveFromISR:
 373               	.LFB25:
 374               	.LM51:
 375               	.LVL40:
 376 0146 0F93      		push r16
 377 0148 1F93      		push r17
 378 014a CF93      		push r28
 379 014c DF93      		push r29
 380               	/* prologue: function */
 381               	/* frame size = 0 */
 382 014e FB01      		movw r30,r22
 383               	.LVL41:
 384 0150 8A01      		movw r16,r20
 385               	.LM52:
 386 0152 EC01      		movw r28,r24
 387               	.LVL42:
 388               	.LM53:
 389 0154 8A8D      		ldd r24,Y+26
 390               	.LVL43:
 391 0156 8823      		tst r24
 392 0158 01F0      		breq .L31
 393               	.LVL44:
 394               	.LM54:
 395 015a 8C8D      		ldd r24,Y+28
 396 015c 2E81      		ldd r18,Y+6
 397 015e 3F81      		ldd r19,Y+7
 398 0160 280F      		add r18,r24
 399 0162 311D      		adc r19,__zero_reg__
 400 0164 3F83      		std Y+7,r19
 401 0166 2E83      		std Y+6,r18
 402               	.LM55:
 403 0168 8A81      		ldd r24,Y+2
 404 016a 9B81      		ldd r25,Y+3
 405 016c 2817      		cp r18,r24
 406 016e 3907      		cpc r19,r25
 407 0170 00F0      		brlo .L32
 408               	.LM56:
 409 0172 8881      		ld r24,Y
 410 0174 9981      		ldd r25,Y+1
 411 0176 9F83      		std Y+7,r25
 412 0178 8E83      		std Y+6,r24
 413               	.L32:
 414               	.LM57:
 415 017a 8A8D      		ldd r24,Y+26
 416 017c 8150      		subi r24,lo8(-(-1))
 417 017e 8A8F      		std Y+26,r24
 418               	.LM58:
 419 0180 4C8D      		ldd r20,Y+28
 420 0182 6E81      		ldd r22,Y+6
 421 0184 7F81      		ldd r23,Y+7
 422 0186 CF01      		movw r24,r30
 423 0188 50E0      		ldi r21,lo8(0)
 424 018a 0E94 0000 		call memcpy
 425               	.LM59:
 426 018e F801      		movw r30,r16
 427 0190 8081      		ld r24,Z
 428 0192 8823      		tst r24
 429 0194 01F4      		brne .L34
 430               	.LM60:
 431 0196 8885      		ldd r24,Y+8
 432 0198 8823      		tst r24
 433 019a 01F0      		breq .L34
 434               	.LM61:
 435 019c CE01      		movw r24,r28
 436 019e 0896      		adiw r24,8
 437 01a0 0E94 0000 		call xCoRoutineRemoveFromEventList
 438 01a4 8823      		tst r24
 439 01a6 01F0      		breq .L34
 440               	.LM62:
 441 01a8 81E0      		ldi r24,lo8(1)
 442 01aa F801      		movw r30,r16
 443 01ac 8083      		st Z,r24
 444 01ae 00C0      		rjmp .L31
 445               	.L34:
 446 01b0 81E0      		ldi r24,lo8(1)
 447               	.LVL45:
 448               	.L31:
 449               	.LVL46:
 450               	/* epilogue start */
 451               	.LM63:
 452 01b2 DF91      		pop r29
 453 01b4 CF91      		pop r28
 454               	.LVL47:
 455 01b6 1F91      		pop r17
 456 01b8 0F91      		pop r16
 457               	.LVL48:
 458 01ba 0895      		ret
 459               	.LFE25:
 461               	.global	xQueueCRSendFromISR
 463               	xQueueCRSendFromISR:
 464               	.LFB24:
 465               	.LM64:
 466               	.LVL49:
 467 01bc 1F93      		push r17
 468 01be CF93      		push r28
 469 01c0 DF93      		push r29
 470               	/* prologue: function */
 471               	/* frame size = 0 */
 472 01c2 142F      		mov r17,r20
 473               	.LM65:
 474 01c4 EC01      		movw r28,r24
 475               	.LVL50:
 476               	.LM66:
 477 01c6 9A8D      		ldd r25,Y+26
 478               	.LVL51:
 479 01c8 8B8D      		ldd r24,Y+27
 480 01ca 9817      		cp r25,r24
 481 01cc 00F4      		brsh .L37
 482               	.LVL52:
 483               	.LM67:
 484 01ce CE01      		movw r24,r28
 485 01d0 40E0      		ldi r20,lo8(0)
 486 01d2 0E94 0000 		call prvCopyDataToQueue
 487               	.LVL53:
 488               	.LM68:
 489 01d6 1123      		tst r17
 490 01d8 01F4      		brne .L37
 491               	.LM69:
 492 01da 8989      		ldd r24,Y+17
 493 01dc 8823      		tst r24
 494 01de 01F0      		breq .L37
 495               	.LM70:
 496 01e0 CE01      		movw r24,r28
 497 01e2 4196      		adiw r24,17
 498 01e4 0E94 0000 		call xCoRoutineRemoveFromEventList
 499 01e8 482F      		mov r20,r24
 500 01ea 8111      		cpse r24,__zero_reg__
 501 01ec 41E0      		ldi r20,lo8(1)
 502               	.L38:
 503 01ee 142F      		mov r17,r20
 504               	.LVL54:
 505               	.L37:
 506               	.LM71:
 507 01f0 812F      		mov r24,r17
 508               	/* epilogue start */
 509 01f2 DF91      		pop r29
 510 01f4 CF91      		pop r28
 511               	.LVL55:
 512 01f6 1F91      		pop r17
 513               	.LVL56:
 514 01f8 0895      		ret
 515               	.LFE24:
 517               	.global	xQueueCRReceive
 519               	xQueueCRReceive:
 520               	.LFB23:
 521               	.LM72:
 522               	.LVL57:
 523 01fa CF93      		push r28
 524 01fc DF93      		push r29
 525               	/* prologue: function */
 526               	/* frame size = 0 */
 527 01fe FB01      		movw r30,r22
 528               	.LVL58:
 529               	.LM73:
 530 0200 EC01      		movw r28,r24
 531               	.LVL59:
 532               	.LM74:
 533               	/* #APP */
 534               	 ;  2079 "../../Source/queue.c" 1
 535 0202 F894      		cli
 536               	 ;  0 "" 2
 537               	.LM75:
 538               	/* #NOAPP */
 539 0204 8A8D      		ldd r24,Y+26
 540               	.LVL60:
 541 0206 8823      		tst r24
 542 0208 01F4      		brne .L41
 543               	.LM76:
 544 020a 4115      		cp r20,__zero_reg__
 545 020c 5105      		cpc r21,__zero_reg__
 546 020e 01F0      		breq .L42
 547               	.LM77:
 548 0210 6196      		adiw r28,17
 549 0212 CA01      		movw r24,r20
 550 0214 BE01      		movw r22,r28
 551 0216 0E94 0000 		call vCoRoutineAddToDelayedList
 552               	.LVL61:
 553               	.LM78:
 554               	/* #APP */
 555               	 ;  2090 "../../Source/queue.c" 1
 556 021a 7894      		sei
 557               	 ;  0 "" 2
 558               	/* #NOAPP */
 559 021c 8CEF      		ldi r24,lo8(-4)
 560               	.LVL62:
 561 021e 00C0      		rjmp .L43
 562               	.LVL63:
 563               	.L42:
 564               	.LM79:
 565               	/* #APP */
 566               	 ;  2095 "../../Source/queue.c" 1
 567 0220 7894      		sei
 568               	 ;  0 "" 2
 569               	/* #NOAPP */
 570 0222 80E0      		ldi r24,lo8(0)
 571               	.LVL64:
 572 0224 00C0      		rjmp .L43
 573               	.LVL65:
 574               	.L41:
 575               	.LM80:
 576               	/* #APP */
 577               	 ;  2104 "../../Source/queue.c" 1
 578 0226 7894      		sei
 579               	 ;  0 "" 2
 580               	.LM81:
 581               	 ;  2106 "../../Source/queue.c" 1
 582 0228 F894      		cli
 583               	 ;  0 "" 2
 584               	.LM82:
 585               	/* #NOAPP */
 586 022a 8A8D      		ldd r24,Y+26
 587 022c 8823      		tst r24
 588 022e 01F0      		breq .L45
 589               	.LM83:
 590 0230 8C8D      		ldd r24,Y+28
 591 0232 2E81      		ldd r18,Y+6
 592 0234 3F81      		ldd r19,Y+7
 593 0236 280F      		add r18,r24
 594 0238 311D      		adc r19,__zero_reg__
 595 023a 3F83      		std Y+7,r19
 596 023c 2E83      		std Y+6,r18
 597               	.LM84:
 598 023e 8A81      		ldd r24,Y+2
 599 0240 9B81      		ldd r25,Y+3
 600 0242 2817      		cp r18,r24
 601 0244 3907      		cpc r19,r25
 602 0246 00F0      		brlo .L46
 603               	.LM85:
 604 0248 8881      		ld r24,Y
 605 024a 9981      		ldd r25,Y+1
 606 024c 9F83      		std Y+7,r25
 607 024e 8E83      		std Y+6,r24
 608               	.L46:
 609               	.LM86:
 610 0250 8A8D      		ldd r24,Y+26
 611 0252 8150      		subi r24,lo8(-(-1))
 612 0254 8A8F      		std Y+26,r24
 613               	.LM87:
 614 0256 4C8D      		ldd r20,Y+28
 615               	.LVL66:
 616 0258 6E81      		ldd r22,Y+6
 617 025a 7F81      		ldd r23,Y+7
 618 025c CF01      		movw r24,r30
 619 025e 50E0      		ldi r21,lo8(0)
 620 0260 0E94 0000 		call memcpy
 621               	.LM88:
 622 0264 8885      		ldd r24,Y+8
 623 0266 8823      		tst r24
 624 0268 01F0      		breq .L48
 625               	.LM89:
 626 026a CE01      		movw r24,r28
 627 026c 0896      		adiw r24,8
 628 026e 0E94 0000 		call xCoRoutineRemoveFromEventList
 629 0272 8823      		tst r24
 630 0274 01F0      		breq .L48
 631 0276 8BEF      		ldi r24,lo8(-5)
 632               	.LVL67:
 633 0278 00C0      		rjmp .L45
 634               	.LVL68:
 635               	.L48:
 636 027a 81E0      		ldi r24,lo8(1)
 637               	.LVL69:
 638               	.L45:
 639               	.LM90:
 640               	/* #APP */
 641               	 ;  2151 "../../Source/queue.c" 1
 642 027c 7894      		sei
 643               	 ;  0 "" 2
 644               	/* #NOAPP */
 645               	.L43:
 646               	.LVL70:
 647               	/* epilogue start */
 648               	.LM91:
 649 027e DF91      		pop r29
 650 0280 CF91      		pop r28
 651               	.LVL71:
 652 0282 0895      		ret
 653               	.LFE23:
 655               	.global	xQueueCRSend
 657               	xQueueCRSend:
 658               	.LFB22:
 659               	.LM92:
 660               	.LVL72:
 661 0284 CF93      		push r28
 662 0286 DF93      		push r29
 663               	/* prologue: function */
 664               	/* frame size = 0 */
 665               	.LM93:
 666 0288 EC01      		movw r28,r24
 667               	.LVL73:
 668               	.LM94:
 669               	/* #APP */
 670               	 ;  2002 "../../Source/queue.c" 1
 671 028a F894      		cli
 672               	 ;  0 "" 2
 673               	/* #NOAPP */
 674               	.LBB13:
 675               	.LBB14:
 676               	.LM95:
 677               	/* #APP */
 678               	 ;  1957 "../../Source/queue.c" 1
 679 028c 0FB6      		in		__tmp_reg__, __SREG__
 680               	 ;  0 "" 2
 681               	 ;  1957 "../../Source/queue.c" 1
 682 028e F894      		cli
 683               	 ;  0 "" 2
 684               	 ;  1957 "../../Source/queue.c" 1
 685 0290 0F92      		push	__tmp_reg__
 686               	 ;  0 "" 2
 687               	.LM96:
 688               	/* #NOAPP */
 689 0292 8A8D      		ldd r24,Y+26
 690               	.LVL74:
 691 0294 9B8D      		ldd r25,Y+27
 692               	.LM97:
 693               	/* #APP */
 694               	 ;  1968 "../../Source/queue.c" 1
 695 0296 0F90      		pop		__tmp_reg__
 696               	 ;  0 "" 2
 697               	 ;  1968 "../../Source/queue.c" 1
 698 0298 0FBE      		out		__SREG__, __tmp_reg__
 699               	 ;  0 "" 2
 700               	/* #NOAPP */
 701               	.LBE14:
 702               	.LBE13:
 703               	.LM98:
 704 029a 8917      		cp r24,r25
 705 029c 01F4      		brne .L51
 706               	.LM99:
 707 029e 4115      		cp r20,__zero_reg__
 708 02a0 5105      		cpc r21,__zero_reg__
 709 02a2 01F0      		breq .L52
 710               	.LM100:
 711 02a4 2896      		adiw r28,8
 712 02a6 CA01      		movw r24,r20
 713 02a8 BE01      		movw r22,r28
 714               	.LVL75:
 715 02aa 0E94 0000 		call vCoRoutineAddToDelayedList
 716               	.LVL76:
 717               	.LM101:
 718               	/* #APP */
 719               	 ;  2013 "../../Source/queue.c" 1
 720 02ae 7894      		sei
 721               	 ;  0 "" 2
 722               	/* #NOAPP */
 723 02b0 8CEF      		ldi r24,lo8(-4)
 724               	.LVL77:
 725 02b2 00C0      		rjmp .L53
 726               	.LVL78:
 727               	.L52:
 728               	.LM102:
 729               	/* #APP */
 730               	 ;  2018 "../../Source/queue.c" 1
 731 02b4 7894      		sei
 732               	 ;  0 "" 2
 733               	/* #NOAPP */
 734 02b6 80E0      		ldi r24,lo8(0)
 735               	.LVL79:
 736 02b8 00C0      		rjmp .L53
 737               	.LVL80:
 738               	.L51:
 739               	.LM103:
 740               	/* #APP */
 741               	 ;  2023 "../../Source/queue.c" 1
 742 02ba 7894      		sei
 743               	 ;  0 "" 2
 744               	.LM104:
 745               	 ;  2025 "../../Source/queue.c" 1
 746 02bc F894      		cli
 747               	 ;  0 "" 2
 748               	.LM105:
 749               	/* #NOAPP */
 750 02be 8A8D      		ldd r24,Y+26
 751 02c0 8917      		cp r24,r25
 752 02c2 00F0      		brlo .L54
 753 02c4 80E0      		ldi r24,lo8(0)
 754               	.LVL81:
 755 02c6 00C0      		rjmp .L55
 756               	.LVL82:
 757               	.L54:
 758               	.LM106:
 759 02c8 CE01      		movw r24,r28
 760 02ca 40E0      		ldi r20,lo8(0)
 761               	.LVL83:
 762 02cc 0E94 0000 		call prvCopyDataToQueue
 763               	.LVL84:
 764               	.LM107:
 765 02d0 8989      		ldd r24,Y+17
 766 02d2 8823      		tst r24
 767 02d4 01F0      		breq .L56
 768               	.LM108:
 769 02d6 CE01      		movw r24,r28
 770 02d8 4196      		adiw r24,17
 771 02da 0E94 0000 		call xCoRoutineRemoveFromEventList
 772 02de 8823      		tst r24
 773 02e0 01F0      		breq .L56
 774 02e2 8BEF      		ldi r24,lo8(-5)
 775               	.LVL85:
 776 02e4 00C0      		rjmp .L55
 777               	.LVL86:
 778               	.L56:
 779 02e6 81E0      		ldi r24,lo8(1)
 780               	.LVL87:
 781               	.L55:
 782               	.LM109:
 783               	/* #APP */
 784               	 ;  2061 "../../Source/queue.c" 1
 785 02e8 7894      		sei
 786               	 ;  0 "" 2
 787               	/* #NOAPP */
 788               	.L53:
 789               	.LVL88:
 790               	/* epilogue start */
 791               	.LM110:
 792 02ea DF91      		pop r29
 793 02ec CF91      		pop r28
 794               	.LVL89:
 795 02ee 0895      		ret
 796               	.LFE22:
 798               	.global	vQueueDelete
 800               	vQueueDelete:
 801               	.LFB14:
 802               	.LM111:
 803               	.LVL90:
 804               	/* prologue: function */
 805               	/* frame size = 0 */
 806               	.LM112:
 807 02f0 0E94 0000 		call vPortFree
 808               	.LVL91:
 809               	/* epilogue start */
 810               	.LM113:
 811 02f4 0895      		ret
 812               	.LFE14:
 814               	.global	xQueueReceiveFromISR
 816               	xQueueReceiveFromISR:
 817               	.LFB9:
 818               	.LM114:
 819               	.LVL92:
 820 02f6 EF92      		push r14
 821 02f8 FF92      		push r15
 822 02fa 0F93      		push r16
 823 02fc 1F93      		push r17
 824 02fe CF93      		push r28
 825 0300 DF93      		push r29
 826               	/* prologue: function */
 827               	/* frame size = 0 */
 828 0302 7A01      		movw r14,r20
 829               	.LM115:
 830 0304 EC01      		movw r28,r24
 831               	.LVL93:
 832               	.LBB15:
 833               	.LM116:
 834 0306 1A8D      		ldd r17,Y+26
 835               	.LVL94:
 836               	.LM117:
 837 0308 1123      		tst r17
 838 030a 01F4      		brne .L61
 839               	.LVL95:
 840 030c 80E0      		ldi r24,lo8(0)
 841               	.LVL96:
 842 030e 00C0      		rjmp .L62
 843               	.LVL97:
 844               	.L61:
 845               	.LBB16:
 846               	.LM118:
 847 0310 0D8D      		ldd r16,Y+29
 848               	.LVL98:
 849               	.LM119:
 850 0312 0E94 0000 		call prvCopyDataFromQueue
 851               	.LVL99:
 852               	.LM120:
 853 0316 1150      		subi r17,lo8(-(-1))
 854 0318 1A8F      		std Y+26,r17
 855               	.LM121:
 856 031a 0F3F      		cpi r16,lo8(-1)
 857 031c 01F4      		brne .L63
 858               	.LM122:
 859 031e 8885      		ldd r24,Y+8
 860 0320 8823      		tst r24
 861 0322 01F0      		breq .L64
 862               	.LM123:
 863 0324 CE01      		movw r24,r28
 864 0326 0896      		adiw r24,8
 865 0328 0E94 0000 		call xTaskRemoveFromEventList
 866 032c 8823      		tst r24
 867 032e 01F0      		breq .L64
 868               	.LM124:
 869 0330 E114      		cp r14,__zero_reg__
 870 0332 F104      		cpc r15,__zero_reg__
 871 0334 01F0      		breq .L64
 872               	.LM125:
 873 0336 81E0      		ldi r24,lo8(1)
 874 0338 F701      		movw r30,r14
 875 033a 8083      		st Z,r24
 876 033c 00C0      		rjmp .L62
 877               	.L63:
 878               	.LM126:
 879 033e 0F5F      		subi r16,lo8(-(1))
 880 0340 0D8F      		std Y+29,r16
 881               	.L64:
 882 0342 81E0      		ldi r24,lo8(1)
 883               	.LVL100:
 884               	.L62:
 885               	.LVL101:
 886               	/* epilogue start */
 887               	.LBE16:
 888               	.LBE15:
 889               	.LM127:
 890 0344 DF91      		pop r29
 891 0346 CF91      		pop r28
 892               	.LVL102:
 893 0348 1F91      		pop r17
 894               	.LVL103:
 895 034a 0F91      		pop r16
 896               	.LVL104:
 897 034c FF90      		pop r15
 898 034e EF90      		pop r14
 899               	.LVL105:
 900 0350 0895      		ret
 901               	.LFE9:
 903               	.global	xQueueGiveFromISR
 905               	xQueueGiveFromISR:
 906               	.LFB7:
 907               	.LM128:
 908               	.LVL106:
 909 0352 CF93      		push r28
 910 0354 DF93      		push r29
 911               	/* prologue: function */
 912               	/* frame size = 0 */
 913 0356 EB01      		movw r28,r22
 914               	.LM129:
 915 0358 FC01      		movw r30,r24
 916               	.LVL107:
 917               	.LBB17:
 918               	.LM130:
 919 035a 928D      		ldd r25,Z+26
 920               	.LVL108:
 921               	.LM131:
 922 035c 838D      		ldd r24,Z+27
 923 035e 9817      		cp r25,r24
 924 0360 00F0      		brlo .L67
 925               	.LVL109:
 926 0362 80E0      		ldi r24,lo8(0)
 927               	.LVL110:
 928 0364 00C0      		rjmp .L68
 929               	.LVL111:
 930               	.L67:
 931               	.LBB18:
 932               	.LM132:
 933 0366 868D      		ldd r24,Z+30
 934               	.LVL112:
 935               	.LM133:
 936 0368 9F5F      		subi r25,lo8(-(1))
 937 036a 928F      		std Z+26,r25
 938               	.LM134:
 939 036c 8F3F      		cpi r24,lo8(-1)
 940 036e 01F4      		brne .L69
 941               	.LM135:
 942 0370 8189      		ldd r24,Z+17
 943               	.LVL113:
 944 0372 8823      		tst r24
 945 0374 01F0      		breq .L70
 946               	.LM136:
 947 0376 CF01      		movw r24,r30
 948 0378 4196      		adiw r24,17
 949 037a 0E94 0000 		call xTaskRemoveFromEventList
 950               	.LVL114:
 951 037e 8823      		tst r24
 952 0380 01F0      		breq .L70
 953               	.LM137:
 954 0382 2097      		sbiw r28,0
 955 0384 01F0      		breq .L70
 956               	.LM138:
 957 0386 81E0      		ldi r24,lo8(1)
 958 0388 8883      		st Y,r24
 959 038a 00C0      		rjmp .L68
 960               	.LVL115:
 961               	.L69:
 962               	.LM139:
 963 038c 8F5F      		subi r24,lo8(-(1))
 964 038e 868F      		std Z+30,r24
 965               	.L70:
 966 0390 81E0      		ldi r24,lo8(1)
 967               	.LVL116:
 968               	.L68:
 969               	.LVL117:
 970               	/* epilogue start */
 971               	.LBE18:
 972               	.LBE17:
 973               	.LM140:
 974 0392 DF91      		pop r29
 975 0394 CF91      		pop r28
 976               	.LVL118:
 977 0396 0895      		ret
 978               	.LFE7:
 980               	.global	xQueueGenericSendFromISR
 982               	xQueueGenericSendFromISR:
 983               	.LFB6:
 984               	.LM141:
 985               	.LVL119:
 986 0398 EF92      		push r14
 987 039a FF92      		push r15
 988 039c 1F93      		push r17
 989 039e CF93      		push r28
 990 03a0 DF93      		push r29
 991               	/* prologue: function */
 992               	/* frame size = 0 */
 993 03a2 7A01      		movw r14,r20
 994               	.LM142:
 995 03a4 EC01      		movw r28,r24
 996               	.LVL120:
 997               	.LM143:
 998 03a6 9A8D      		ldd r25,Y+26
 999               	.LVL121:
 1000 03a8 8B8D      		ldd r24,Y+27
 1001 03aa 9817      		cp r25,r24
 1002 03ac 00F0      		brlo .L73
 1003               	.LVL122:
 1004 03ae 2230      		cpi r18,lo8(2)
 1005 03b0 01F0      		breq .L73
 1006 03b2 80E0      		ldi r24,lo8(0)
 1007               	.LVL123:
 1008 03b4 00C0      		rjmp .L74
 1009               	.LVL124:
 1010               	.L73:
 1011               	.LBB19:
 1012               	.LM144:
 1013 03b6 1E8D      		ldd r17,Y+30
 1014               	.LVL125:
 1015               	.LM145:
 1016 03b8 CE01      		movw r24,r28
 1017 03ba 422F      		mov r20,r18
 1018 03bc 0E94 0000 		call prvCopyDataToQueue
 1019               	.LVL126:
 1020               	.LM146:
 1021 03c0 1F3F      		cpi r17,lo8(-1)
 1022 03c2 01F4      		brne .L75
 1023               	.LM147:
 1024 03c4 8989      		ldd r24,Y+17
 1025 03c6 8823      		tst r24
 1026 03c8 01F0      		breq .L76
 1027               	.LM148:
 1028 03ca CE01      		movw r24,r28
 1029 03cc 4196      		adiw r24,17
 1030 03ce 0E94 0000 		call xTaskRemoveFromEventList
 1031 03d2 8823      		tst r24
 1032 03d4 01F0      		breq .L76
 1033               	.LM149:
 1034 03d6 E114      		cp r14,__zero_reg__
 1035 03d8 F104      		cpc r15,__zero_reg__
 1036 03da 01F0      		breq .L76
 1037               	.LM150:
 1038 03dc 81E0      		ldi r24,lo8(1)
 1039 03de F701      		movw r30,r14
 1040 03e0 8083      		st Z,r24
 1041 03e2 00C0      		rjmp .L74
 1042               	.L75:
 1043               	.LM151:
 1044 03e4 1F5F      		subi r17,lo8(-(1))
 1045 03e6 1E8F      		std Y+30,r17
 1046               	.L76:
 1047 03e8 81E0      		ldi r24,lo8(1)
 1048               	.LVL127:
 1049               	.L74:
 1050               	.LVL128:
 1051               	/* epilogue start */
 1052               	.LBE19:
 1053               	.LM152:
 1054 03ea DF91      		pop r29
 1055 03ec CF91      		pop r28
 1056               	.LVL129:
 1057 03ee 1F91      		pop r17
 1058               	.LVL130:
 1059 03f0 FF90      		pop r15
 1060 03f2 EF90      		pop r14
 1061               	.LVL131:
 1062 03f4 0895      		ret
 1063               	.LFE6:
 1066               	prvUnlockQueue:
 1067               	.LFB17:
 1068               	.LM153:
 1069               	.LVL132:
 1070 03f6 EF92      		push r14
 1071 03f8 FF92      		push r15
 1072 03fa 1F93      		push r17
 1073 03fc CF93      		push r28
 1074 03fe DF93      		push r29
 1075               	/* prologue: function */
 1076               	/* frame size = 0 */
 1077 0400 EC01      		movw r28,r24
 1078               	.LM154:
 1079               	/* #APP */
 1080               	 ;  1802 "../../Source/queue.c" 1
 1081 0402 0FB6      		in		__tmp_reg__, __SREG__
 1082               	 ;  0 "" 2
 1083               	 ;  1802 "../../Source/queue.c" 1
 1084 0404 F894      		cli
 1085               	 ;  0 "" 2
 1086               	 ;  1802 "../../Source/queue.c" 1
 1087 0406 0F92      		push	__tmp_reg__
 1088               	 ;  0 "" 2
 1089               	/* #NOAPP */
 1090               	.LBB20:
 1091               	.LM155:
 1092 0408 1E8D      		ldd r17,Y+30
 1093               	.LVL133:
 1094               	.LM156:
 1095 040a 91E1      		ldi r25,lo8(17)
 1096 040c E92E      		mov r14,r25
 1097 040e F12C      		mov r15,__zero_reg__
 1098 0410 EC0E      		add r14,r28
 1099 0412 FD1E      		adc r15,r29
 1100 0414 00C0      		rjmp .L79
 1101               	.LVL134:
 1102               	.L82:
 1103               	.LM157:
 1104 0416 8989      		ldd r24,Y+17
 1105 0418 8823      		tst r24
 1106 041a 01F0      		breq .L80
 1107               	.LM158:
 1108 041c C701      		movw r24,r14
 1109 041e 0E94 0000 		call xTaskRemoveFromEventList
 1110 0422 8823      		tst r24
 1111 0424 01F0      		breq .L81
 1112               	.LM159:
 1113 0426 0E94 0000 		call vTaskMissedYield
 1114               	.L81:
 1115               	.LM160:
 1116 042a 1150      		subi r17,lo8(-(-1))
 1117               	.LVL135:
 1118               	.L79:
 1119               	.LM161:
 1120 042c 1116      		cp __zero_reg__,r17
 1121 042e 04F0      		brlt .L82
 1122               	.L80:
 1123               	.LM162:
 1124 0430 8FEF      		ldi r24,lo8(-1)
 1125 0432 8E8F      		std Y+30,r24
 1126               	.LBE20:
 1127               	.LM163:
 1128               	/* #APP */
 1129               	 ;  1880 "../../Source/queue.c" 1
 1130 0434 0F90      		pop		__tmp_reg__
 1131               	 ;  0 "" 2
 1132               	 ;  1880 "../../Source/queue.c" 1
 1133 0436 0FBE      		out		__SREG__, __tmp_reg__
 1134               	 ;  0 "" 2
 1135               	.LM164:
 1136               	 ;  1883 "../../Source/queue.c" 1
 1137 0438 0FB6      		in		__tmp_reg__, __SREG__
 1138               	 ;  0 "" 2
 1139               	 ;  1883 "../../Source/queue.c" 1
 1140 043a F894      		cli
 1141               	 ;  0 "" 2
 1142               	 ;  1883 "../../Source/queue.c" 1
 1143 043c 0F92      		push	__tmp_reg__
 1144               	 ;  0 "" 2
 1145               	/* #NOAPP */
 1146               	.LBB21:
 1147               	.LM165:
 1148 043e 1D8D      		ldd r17,Y+29
 1149               	.LVL136:
 1150               	.LM166:
 1151 0440 88E0      		ldi r24,lo8(8)
 1152 0442 E82E      		mov r14,r24
 1153 0444 F12C      		mov r15,__zero_reg__
 1154 0446 EC0E      		add r14,r28
 1155 0448 FD1E      		adc r15,r29
 1156 044a 00C0      		rjmp .L83
 1157               	.L86:
 1158               	.LM167:
 1159 044c 8885      		ldd r24,Y+8
 1160 044e 8823      		tst r24
 1161 0450 01F0      		breq .L84
 1162               	.LM168:
 1163 0452 C701      		movw r24,r14
 1164 0454 0E94 0000 		call xTaskRemoveFromEventList
 1165 0458 8823      		tst r24
 1166 045a 01F0      		breq .L85
 1167               	.LM169:
 1168 045c 0E94 0000 		call vTaskMissedYield
 1169               	.L85:
 1170               	.LM170:
 1171 0460 1150      		subi r17,lo8(-(-1))
 1172               	.L83:
 1173               	.LM171:
 1174 0462 1116      		cp __zero_reg__,r17
 1175 0464 04F0      		brlt .L86
 1176               	.L84:
 1177               	.LM172:
 1178 0466 8FEF      		ldi r24,lo8(-1)
 1179 0468 8D8F      		std Y+29,r24
 1180               	.LBE21:
 1181               	.LM173:
 1182               	/* #APP */
 1183               	 ;  1910 "../../Source/queue.c" 1
 1184 046a 0F90      		pop		__tmp_reg__
 1185               	 ;  0 "" 2
 1186               	 ;  1910 "../../Source/queue.c" 1
 1187 046c 0FBE      		out		__SREG__, __tmp_reg__
 1188               	 ;  0 "" 2
 1189               	/* epilogue start */
 1190               	.LM174:
 1191               	/* #NOAPP */
 1192 046e DF91      		pop r29
 1193 0470 CF91      		pop r28
 1194               	.LVL137:
 1195 0472 1F91      		pop r17
 1196               	.LVL138:
 1197 0474 FF90      		pop r15
 1198 0476 EF90      		pop r14
 1199 0478 0895      		ret
 1200               	.LFE17:
 1202               	.global	xQueueGenericReceive
 1204               	xQueueGenericReceive:
 1205               	.LFB8:
 1206               	.LM175:
 1207               	.LVL139:
 1208 047a 6F92      		push r6
 1209 047c 7F92      		push r7
 1210 047e 8F92      		push r8
 1211 0480 9F92      		push r9
 1212 0482 AF92      		push r10
 1213 0484 BF92      		push r11
 1214 0486 CF92      		push r12
 1215 0488 DF92      		push r13
 1216 048a EF92      		push r14
 1217 048c FF92      		push r15
 1218 048e 0F93      		push r16
 1219 0490 1F93      		push r17
 1220 0492 DF93      		push r29
 1221 0494 CF93      		push r28
 1222 0496 00D0      		rcall .
 1223 0498 00D0      		rcall .
 1224 049a 0F92      		push __tmp_reg__
 1225 049c CDB7      		in r28,__SP_L__
 1226 049e DEB7      		in r29,__SP_H__
 1227               	/* prologue: function */
 1228               	/* frame size = 5 */
 1229 04a0 4B01      		movw r8,r22
 1230 04a2 5D83      		std Y+5,r21
 1231 04a4 4C83      		std Y+4,r20
 1232 04a6 E22E      		mov r14,r18
 1233               	.LM176:
 1234 04a8 8C01      		movw r16,r24
 1235               	.LVL140:
 1236               	.LM177:
 1237 04aa 41E1      		ldi r20,lo8(17)
 1238 04ac A42E      		mov r10,r20
 1239 04ae B12C      		mov r11,__zero_reg__
 1240               	.LVL141:
 1241 04b0 A80E      		add r10,r24
 1242 04b2 B91E      		adc r11,r25
 1243               	.LVL142:
 1244 04b4 20E0      		ldi r18,lo8(0)
 1245               	.LVL143:
 1246               	.LBB22:
 1247               	.LM178:
 1248 04b6 6E01      		movw r12,r28
 1249 04b8 0894      		sec
 1250 04ba C11C      		adc r12,__zero_reg__
 1251 04bc D11C      		adc r13,__zero_reg__
 1252               	.LBE22:
 1253               	.LM179:
 1254 04be 34E0      		ldi r19,lo8(4)
 1255 04c0 632E      		mov r6,r19
 1256 04c2 712C      		mov r7,__zero_reg__
 1257 04c4 6C0E      		add r6,r28
 1258 04c6 7D1E      		adc r7,r29
 1259 04c8 00C0      		rjmp .L89
 1260               	.LVL144:
 1261               	.L100:
 1262               	.LM180:
 1263 04ca 21E0      		ldi r18,lo8(1)
 1264               	.LVL145:
 1265               	.L89:
 1266               	.LM181:
 1267               	/* #APP */
 1268               	 ;  1258 "../../Source/queue.c" 1
 1269 04cc 0FB6      		in		__tmp_reg__, __SREG__
 1270               	 ;  0 "" 2
 1271               	 ;  1258 "../../Source/queue.c" 1
 1272 04ce F894      		cli
 1273               	 ;  0 "" 2
 1274               	 ;  1258 "../../Source/queue.c" 1
 1275 04d0 0F92      		push	__tmp_reg__
 1276               	 ;  0 "" 2
 1277               	/* #NOAPP */
 1278               	.LBB23:
 1279               	.LM182:
 1280 04d2 F801      		movw r30,r16
 1281 04d4 F28C      		ldd r15,Z+26
 1282               	.LM183:
 1283 04d6 FF20      		tst r15
 1284 04d8 01F0      		breq .L90
 1285               	.LM184:
 1286 04da C680      		ldd r12,Z+6
 1287 04dc D780      		ldd r13,Z+7
 1288               	.LVL146:
 1289               	.LM185:
 1290 04de C801      		movw r24,r16
 1291 04e0 B401      		movw r22,r8
 1292 04e2 0E94 0000 		call prvCopyDataFromQueue
 1293               	.LVL147:
 1294               	.LM186:
 1295 04e6 EE20      		tst r14
 1296 04e8 01F4      		brne .L91
 1297               	.LM187:
 1298 04ea FA94      		dec r15
 1299 04ec F801      		movw r30,r16
 1300 04ee F28E      		std Z+26,r15
 1301               	.LM188:
 1302 04f0 8085      		ldd r24,Z+8
 1303 04f2 8823      		tst r24
 1304 04f4 01F0      		breq .L92
 1305               	.LM189:
 1306 04f6 C801      		movw r24,r16
 1307 04f8 0896      		adiw r24,8
 1308 04fa 00C0      		rjmp .L104
 1309               	.L91:
 1310               	.LM190:
 1311 04fc F801      		movw r30,r16
 1312 04fe D782      		std Z+7,r13
 1313 0500 C682      		std Z+6,r12
 1314               	.LM191:
 1315 0502 8189      		ldd r24,Z+17
 1316 0504 8823      		tst r24
 1317 0506 01F0      		breq .L92
 1318               	.LM192:
 1319 0508 C501      		movw r24,r10
 1320               	.L104:
 1321 050a 0E94 0000 		call xTaskRemoveFromEventList
 1322 050e 8823      		tst r24
 1323 0510 01F0      		breq .L92
 1324               	.LM193:
 1325 0512 0E94 0000 		call vPortYield
 1326               	.L92:
 1327               	.LM194:
 1328               	/* #APP */
 1329               	 ;  1338 "../../Source/queue.c" 1
 1330 0516 0F90      		pop		__tmp_reg__
 1331               	 ;  0 "" 2
 1332               	 ;  1338 "../../Source/queue.c" 1
 1333 0518 0FBE      		out		__SREG__, __tmp_reg__
 1334               	 ;  0 "" 2
 1335               	/* #NOAPP */
 1336 051a 81E0      		ldi r24,lo8(1)
 1337 051c 00C0      		rjmp .L93
 1338               	.LVL148:
 1339               	.L90:
 1340               	.LM195:
 1341 051e 8C81      		ldd r24,Y+4
 1342 0520 9D81      		ldd r25,Y+5
 1343 0522 892B      		or r24,r25
 1344 0524 01F4      		brne .L94
 1345               	.LVL149:
 1346               	.LM196:
 1347               	/* #APP */
 1348               	 ;  1347 "../../Source/queue.c" 1
 1349 0526 0F90      		pop		__tmp_reg__
 1350               	 ;  0 "" 2
 1351               	 ;  1347 "../../Source/queue.c" 1
 1352 0528 0FBE      		out		__SREG__, __tmp_reg__
 1353               	 ;  0 "" 2
 1354               	/* #NOAPP */
 1355 052a 80E0      		ldi r24,lo8(0)
 1356               	.LVL150:
 1357 052c 00C0      		rjmp .L93
 1358               	.LVL151:
 1359               	.L94:
 1360               	.LM197:
 1361 052e 2223      		tst r18
 1362 0530 01F4      		brne .L95
 1363               	.LM198:
 1364 0532 C601      		movw r24,r12
 1365               	.LVL152:
 1366 0534 0E94 0000 		call vTaskSetTimeOutState
 1367               	.LVL153:
 1368               	.L95:
 1369               	.LBE23:
 1370               	.LM199:
 1371               	/* #APP */
 1372               	 ;  1365 "../../Source/queue.c" 1
 1373 0538 0F90      		pop		__tmp_reg__
 1374               	 ;  0 "" 2
 1375               	 ;  1365 "../../Source/queue.c" 1
 1376 053a 0FBE      		out		__SREG__, __tmp_reg__
 1377               	 ;  0 "" 2
 1378               	.LM200:
 1379               	/* #NOAPP */
 1380 053c 0E94 0000 		call vTaskSuspendAll
 1381               	.LVL154:
 1382               	.LM201:
 1383               	/* #APP */
 1384               	 ;  1371 "../../Source/queue.c" 1
 1385 0540 0FB6      		in		__tmp_reg__, __SREG__
 1386               	 ;  0 "" 2
 1387               	 ;  1371 "../../Source/queue.c" 1
 1388 0542 F894      		cli
 1389               	 ;  0 "" 2
 1390               	 ;  1371 "../../Source/queue.c" 1
 1391 0544 0F92      		push	__tmp_reg__
 1392               	 ;  0 "" 2
 1393               	/* #NOAPP */
 1394 0546 F801      		movw r30,r16
 1395 0548 858D      		ldd r24,Z+29
 1396 054a 8F3F      		cpi r24,lo8(-1)
 1397 054c 01F4      		brne .L96
 1398 054e 158E      		std Z+29,__zero_reg__
 1399               	.L96:
 1400 0550 F801      		movw r30,r16
 1401 0552 868D      		ldd r24,Z+30
 1402 0554 8F3F      		cpi r24,lo8(-1)
 1403 0556 01F4      		brne .L97
 1404 0558 168E      		std Z+30,__zero_reg__
 1405               	.L97:
 1406               	/* #APP */
 1407               	 ;  1371 "../../Source/queue.c" 1
 1408 055a 0F90      		pop		__tmp_reg__
 1409               	 ;  0 "" 2
 1410               	 ;  1371 "../../Source/queue.c" 1
 1411 055c 0FBE      		out		__SREG__, __tmp_reg__
 1412               	 ;  0 "" 2
 1413               	.LM202:
 1414               	/* #NOAPP */
 1415 055e C601      		movw r24,r12
 1416 0560 B301      		movw r22,r6
 1417 0562 0E94 0000 		call xTaskCheckForTimeOut
 1418 0566 8823      		tst r24
 1419 0568 01F4      		brne .L98
 1420               	.LBB24:
 1421               	.LBB25:
 1422               	.LM203:
 1423               	/* #APP */
 1424               	 ;  1918 "../../Source/queue.c" 1
 1425 056a 0FB6      		in		__tmp_reg__, __SREG__
 1426               	 ;  0 "" 2
 1427               	 ;  1918 "../../Source/queue.c" 1
 1428 056c F894      		cli
 1429               	 ;  0 "" 2
 1430               	 ;  1918 "../../Source/queue.c" 1
 1431 056e 0F92      		push	__tmp_reg__
 1432               	 ;  0 "" 2
 1433               	.LM204:
 1434               	/* #NOAPP */
 1435 0570 F801      		movw r30,r16
 1436 0572 828D      		ldd r24,Z+26
 1437               	.LM205:
 1438               	/* #APP */
 1439               	 ;  1929 "../../Source/queue.c" 1
 1440 0574 0F90      		pop		__tmp_reg__
 1441               	 ;  0 "" 2
 1442               	 ;  1929 "../../Source/queue.c" 1
 1443 0576 0FBE      		out		__SREG__, __tmp_reg__
 1444               	 ;  0 "" 2
 1445               	/* #NOAPP */
 1446               	.LBE25:
 1447               	.LBE24:
 1448               	.LM206:
 1449 0578 8823      		tst r24
 1450 057a 01F4      		brne .L99
 1451               	.LM207:
 1452 057c 6C81      		ldd r22,Y+4
 1453 057e 7D81      		ldd r23,Y+5
 1454 0580 C501      		movw r24,r10
 1455 0582 0E94 0000 		call vTaskPlaceOnEventList
 1456               	.LM208:
 1457 0586 C801      		movw r24,r16
 1458 0588 0E94 0000 		call prvUnlockQueue
 1459               	.LM209:
 1460 058c 0E94 0000 		call xTaskResumeAll
 1461 0590 8823      		tst r24
 1462 0592 01F0      		breq .+2
 1463 0594 00C0      		rjmp .L100
 1464               	.LM210:
 1465 0596 0E94 0000 		call vPortYield
 1466 059a 00C0      		rjmp .L100
 1467               	.L99:
 1468               	.LM211:
 1469 059c C801      		movw r24,r16
 1470 059e 0E94 0000 		call prvUnlockQueue
 1471               	.LM212:
 1472 05a2 0E94 0000 		call xTaskResumeAll
 1473 05a6 00C0      		rjmp .L100
 1474               	.L98:
 1475               	.LM213:
 1476 05a8 C801      		movw r24,r16
 1477 05aa 0E94 0000 		call prvUnlockQueue
 1478               	.LM214:
 1479 05ae 0E94 0000 		call xTaskResumeAll
 1480               	.LBB26:
 1481               	.LBB27:
 1482               	.LM215:
 1483               	/* #APP */
 1484               	 ;  1918 "../../Source/queue.c" 1
 1485 05b2 0FB6      		in		__tmp_reg__, __SREG__
 1486               	 ;  0 "" 2
 1487               	 ;  1918 "../../Source/queue.c" 1
 1488 05b4 F894      		cli
 1489               	 ;  0 "" 2
 1490               	 ;  1918 "../../Source/queue.c" 1
 1491 05b6 0F92      		push	__tmp_reg__
 1492               	 ;  0 "" 2
 1493               	.LM216:
 1494               	/* #NOAPP */
 1495 05b8 F801      		movw r30,r16
 1496 05ba 828D      		ldd r24,Z+26
 1497               	.LM217:
 1498               	/* #APP */
 1499               	 ;  1929 "../../Source/queue.c" 1
 1500 05bc 0F90      		pop		__tmp_reg__
 1501               	 ;  0 "" 2
 1502               	 ;  1929 "../../Source/queue.c" 1
 1503 05be 0FBE      		out		__SREG__, __tmp_reg__
 1504               	 ;  0 "" 2
 1505               	/* #NOAPP */
 1506               	.LBE27:
 1507               	.LBE26:
 1508               	.LM218:
 1509 05c0 8823      		tst r24
 1510 05c2 01F0      		breq .+2
 1511 05c4 00C0      		rjmp .L100
 1512               	.LVL155:
 1513               	.L93:
 1514               	/* epilogue start */
 1515               	.LM219:
 1516 05c6 0F90      		pop __tmp_reg__
 1517 05c8 0F90      		pop __tmp_reg__
 1518 05ca 0F90      		pop __tmp_reg__
 1519 05cc 0F90      		pop __tmp_reg__
 1520 05ce 0F90      		pop __tmp_reg__
 1521 05d0 CF91      		pop r28
 1522 05d2 DF91      		pop r29
 1523 05d4 1F91      		pop r17
 1524 05d6 0F91      		pop r16
 1525               	.LVL156:
 1526 05d8 FF90      		pop r15
 1527               	.LVL157:
 1528 05da EF90      		pop r14
 1529               	.LVL158:
 1530 05dc DF90      		pop r13
 1531 05de CF90      		pop r12
 1532               	.LVL159:
 1533 05e0 BF90      		pop r11
 1534 05e2 AF90      		pop r10
 1535 05e4 9F90      		pop r9
 1536 05e6 8F90      		pop r8
 1537               	.LVL160:
 1538 05e8 7F90      		pop r7
 1539 05ea 6F90      		pop r6
 1540 05ec 0895      		ret
 1541               	.LFE8:
 1543               	.global	xQueueGenericSend
 1545               	xQueueGenericSend:
 1546               	.LFB5:
 1547               	.LM220:
 1548               	.LVL161:
 1549 05ee 6F92      		push r6
 1550 05f0 7F92      		push r7
 1551 05f2 9F92      		push r9
 1552 05f4 AF92      		push r10
 1553 05f6 BF92      		push r11
 1554 05f8 CF92      		push r12
 1555 05fa DF92      		push r13
 1556 05fc EF92      		push r14
 1557 05fe FF92      		push r15
 1558 0600 0F93      		push r16
 1559 0602 1F93      		push r17
 1560 0604 DF93      		push r29
 1561 0606 CF93      		push r28
 1562 0608 00D0      		rcall .
 1563 060a 00D0      		rcall .
 1564 060c 0F92      		push __tmp_reg__
 1565 060e CDB7      		in r28,__SP_L__
 1566 0610 DEB7      		in r29,__SP_H__
 1567               	/* prologue: function */
 1568               	/* frame size = 5 */
 1569 0612 6B01      		movw r12,r22
 1570 0614 5D83      		std Y+5,r21
 1571 0616 4C83      		std Y+4,r20
 1572 0618 922E      		mov r9,r18
 1573               	.LM221:
 1574 061a 8C01      		movw r16,r24
 1575               	.LVL162:
 1576               	.LM222:
 1577 061c 68E0      		ldi r22,lo8(8)
 1578 061e E62E      		mov r14,r22
 1579 0620 F12C      		mov r15,__zero_reg__
 1580               	.LVL163:
 1581 0622 E80E      		add r14,r24
 1582 0624 F91E      		adc r15,r25
 1583               	.LVL164:
 1584 0626 20E0      		ldi r18,lo8(0)
 1585               	.LVL165:
 1586               	.LM223:
 1587 0628 5E01      		movw r10,r28
 1588 062a 0894      		sec
 1589 062c A11C      		adc r10,__zero_reg__
 1590 062e B11C      		adc r11,__zero_reg__
 1591               	.LM224:
 1592 0630 54E0      		ldi r21,lo8(4)
 1593 0632 652E      		mov r6,r21
 1594 0634 712C      		mov r7,__zero_reg__
 1595 0636 6C0E      		add r6,r28
 1596 0638 7D1E      		adc r7,r29
 1597 063a 00C0      		rjmp .L106
 1598               	.LVL166:
 1599               	.L118:
 1600               	.LM225:
 1601 063c 21E0      		ldi r18,lo8(1)
 1602               	.LVL167:
 1603               	.L106:
 1604               	.LM226:
 1605               	/* #APP */
 1606               	 ;  744 "../../Source/queue.c" 1
 1607 063e 0FB6      		in		__tmp_reg__, __SREG__
 1608               	 ;  0 "" 2
 1609               	 ;  744 "../../Source/queue.c" 1
 1610 0640 F894      		cli
 1611               	 ;  0 "" 2
 1612               	 ;  744 "../../Source/queue.c" 1
 1613 0642 0F92      		push	__tmp_reg__
 1614               	 ;  0 "" 2
 1615               	.LM227:
 1616               	/* #NOAPP */
 1617 0644 F801      		movw r30,r16
 1618 0646 928D      		ldd r25,Z+26
 1619 0648 838D      		ldd r24,Z+27
 1620 064a 9817      		cp r25,r24
 1621 064c 00F0      		brlo .L107
 1622 064e F2E0      		ldi r31,lo8(2)
 1623 0650 9F16      		cp r9,r31
 1624 0652 01F4      		brne .L108
 1625               	.L107:
 1626               	.LM228:
 1627 0654 C801      		movw r24,r16
 1628 0656 B601      		movw r22,r12
 1629 0658 492D      		mov r20,r9
 1630 065a 0E94 0000 		call prvCopyDataToQueue
 1631               	.LVL168:
 1632 065e 982F      		mov r25,r24
 1633               	.LVL169:
 1634               	.LM229:
 1635 0660 F801      		movw r30,r16
 1636 0662 8189      		ldd r24,Z+17
 1637 0664 8823      		tst r24
 1638 0666 01F0      		breq .L109
 1639               	.LM230:
 1640 0668 C801      		movw r24,r16
 1641 066a 4196      		adiw r24,17
 1642 066c 0E94 0000 		call xTaskRemoveFromEventList
 1643               	.LVL170:
 1644 0670 8823      		tst r24
 1645 0672 01F0      		breq .L110
 1646 0674 00C0      		rjmp .L120
 1647               	.LVL171:
 1648               	.L109:
 1649               	.LM231:
 1650 0676 9923      		tst r25
 1651 0678 01F0      		breq .L110
 1652               	.L120:
 1653               	.LM232:
 1654 067a 0E94 0000 		call vPortYield
 1655               	.LVL172:
 1656               	.L110:
 1657               	.LM233:
 1658               	/* #APP */
 1659               	 ;  838 "../../Source/queue.c" 1
 1660 067e 0F90      		pop		__tmp_reg__
 1661               	 ;  0 "" 2
 1662               	 ;  838 "../../Source/queue.c" 1
 1663 0680 0FBE      		out		__SREG__, __tmp_reg__
 1664               	 ;  0 "" 2
 1665               	/* #NOAPP */
 1666 0682 81E0      		ldi r24,lo8(1)
 1667 0684 00C0      		rjmp .L111
 1668               	.LVL173:
 1669               	.L108:
 1670               	.LM234:
 1671 0686 8C81      		ldd r24,Y+4
 1672 0688 9D81      		ldd r25,Y+5
 1673 068a 892B      		or r24,r25
 1674 068c 01F4      		brne .L112
 1675               	.LVL174:
 1676               	.LM235:
 1677               	/* #APP */
 1678               	 ;  847 "../../Source/queue.c" 1
 1679 068e 0F90      		pop		__tmp_reg__
 1680               	 ;  0 "" 2
 1681               	 ;  847 "../../Source/queue.c" 1
 1682 0690 0FBE      		out		__SREG__, __tmp_reg__
 1683               	 ;  0 "" 2
 1684               	/* #NOAPP */
 1685 0692 00C0      		rjmp .L121
 1686               	.L112:
 1687               	.LM236:
 1688 0694 2223      		tst r18
 1689 0696 01F4      		brne .L113
 1690               	.LM237:
 1691 0698 C501      		movw r24,r10
 1692               	.LVL175:
 1693 069a 0E94 0000 		call vTaskSetTimeOutState
 1694               	.LVL176:
 1695               	.L113:
 1696               	.LM238:
 1697               	/* #APP */
 1698               	 ;  868 "../../Source/queue.c" 1
 1699 069e 0F90      		pop		__tmp_reg__
 1700               	 ;  0 "" 2
 1701               	 ;  868 "../../Source/queue.c" 1
 1702 06a0 0FBE      		out		__SREG__, __tmp_reg__
 1703               	 ;  0 "" 2
 1704               	.LM239:
 1705               	/* #NOAPP */
 1706 06a2 0E94 0000 		call vTaskSuspendAll
 1707               	.LVL177:
 1708               	.LM240:
 1709               	/* #APP */
 1710               	 ;  874 "../../Source/queue.c" 1
 1711 06a6 0FB6      		in		__tmp_reg__, __SREG__
 1712               	 ;  0 "" 2
 1713               	 ;  874 "../../Source/queue.c" 1
 1714 06a8 F894      		cli
 1715               	 ;  0 "" 2
 1716               	 ;  874 "../../Source/queue.c" 1
 1717 06aa 0F92      		push	__tmp_reg__
 1718               	 ;  0 "" 2
 1719               	/* #NOAPP */
 1720 06ac F801      		movw r30,r16
 1721 06ae 858D      		ldd r24,Z+29
 1722 06b0 8F3F      		cpi r24,lo8(-1)
 1723 06b2 01F4      		brne .L114
 1724 06b4 158E      		std Z+29,__zero_reg__
 1725               	.L114:
 1726 06b6 F801      		movw r30,r16
 1727 06b8 868D      		ldd r24,Z+30
 1728 06ba 8F3F      		cpi r24,lo8(-1)
 1729 06bc 01F4      		brne .L115
 1730 06be 168E      		std Z+30,__zero_reg__
 1731               	.L115:
 1732               	/* #APP */
 1733               	 ;  874 "../../Source/queue.c" 1
 1734 06c0 0F90      		pop		__tmp_reg__
 1735               	 ;  0 "" 2
 1736               	 ;  874 "../../Source/queue.c" 1
 1737 06c2 0FBE      		out		__SREG__, __tmp_reg__
 1738               	 ;  0 "" 2
 1739               	.LM241:
 1740               	/* #NOAPP */
 1741 06c4 C501      		movw r24,r10
 1742 06c6 B301      		movw r22,r6
 1743 06c8 0E94 0000 		call xTaskCheckForTimeOut
 1744 06cc 8823      		tst r24
 1745 06ce 01F4      		brne .L116
 1746               	.LBB28:
 1747               	.LBB29:
 1748               	.LM242:
 1749               	/* #APP */
 1750               	 ;  1957 "../../Source/queue.c" 1
 1751 06d0 0FB6      		in		__tmp_reg__, __SREG__
 1752               	 ;  0 "" 2
 1753               	 ;  1957 "../../Source/queue.c" 1
 1754 06d2 F894      		cli
 1755               	 ;  0 "" 2
 1756               	 ;  1957 "../../Source/queue.c" 1
 1757 06d4 0F92      		push	__tmp_reg__
 1758               	 ;  0 "" 2
 1759               	.LM243:
 1760               	/* #NOAPP */
 1761 06d6 F801      		movw r30,r16
 1762 06d8 928D      		ldd r25,Z+26
 1763               	.LM244:
 1764               	/* #APP */
 1765               	 ;  1968 "../../Source/queue.c" 1
 1766 06da 0F90      		pop		__tmp_reg__
 1767               	 ;  0 "" 2
 1768               	 ;  1968 "../../Source/queue.c" 1
 1769 06dc 0FBE      		out		__SREG__, __tmp_reg__
 1770               	 ;  0 "" 2
 1771               	/* #NOAPP */
 1772               	.LBE29:
 1773               	.LBE28:
 1774               	.LM245:
 1775 06de F801      		movw r30,r16
 1776 06e0 838D      		ldd r24,Z+27
 1777 06e2 9817      		cp r25,r24
 1778 06e4 01F4      		brne .L117
 1779               	.LM246:
 1780 06e6 6C81      		ldd r22,Y+4
 1781 06e8 7D81      		ldd r23,Y+5
 1782 06ea C701      		movw r24,r14
 1783 06ec 0E94 0000 		call vTaskPlaceOnEventList
 1784               	.LM247:
 1785 06f0 C801      		movw r24,r16
 1786 06f2 0E94 0000 		call prvUnlockQueue
 1787               	.LM248:
 1788 06f6 0E94 0000 		call xTaskResumeAll
 1789 06fa 8823      		tst r24
 1790 06fc 01F0      		breq .+2
 1791 06fe 00C0      		rjmp .L118
 1792               	.LM249:
 1793 0700 0E94 0000 		call vPortYield
 1794 0704 00C0      		rjmp .L118
 1795               	.L117:
 1796               	.LM250:
 1797 0706 C801      		movw r24,r16
 1798 0708 0E94 0000 		call prvUnlockQueue
 1799               	.LM251:
 1800 070c 0E94 0000 		call xTaskResumeAll
 1801 0710 00C0      		rjmp .L118
 1802               	.L116:
 1803               	.LM252:
 1804 0712 C801      		movw r24,r16
 1805 0714 0E94 0000 		call prvUnlockQueue
 1806               	.LM253:
 1807 0718 0E94 0000 		call xTaskResumeAll
 1808               	.LVL178:
 1809               	.L121:
 1810 071c 80E0      		ldi r24,lo8(0)
 1811               	.LVL179:
 1812               	.L111:
 1813               	/* epilogue start */
 1814               	.LM254:
 1815 071e 0F90      		pop __tmp_reg__
 1816 0720 0F90      		pop __tmp_reg__
 1817 0722 0F90      		pop __tmp_reg__
 1818 0724 0F90      		pop __tmp_reg__
 1819 0726 0F90      		pop __tmp_reg__
 1820 0728 CF91      		pop r28
 1821 072a DF91      		pop r29
 1822 072c 1F91      		pop r17
 1823 072e 0F91      		pop r16
 1824               	.LVL180:
 1825 0730 FF90      		pop r15
 1826 0732 EF90      		pop r14
 1827 0734 DF90      		pop r13
 1828 0736 CF90      		pop r12
 1829               	.LVL181:
 1830 0738 BF90      		pop r11
 1831 073a AF90      		pop r10
 1832 073c 9F90      		pop r9
 1833               	.LVL182:
 1834 073e 7F90      		pop r7
 1835 0740 6F90      		pop r6
 1836 0742 0895      		ret
 1837               	.LFE5:
 1839               	.global	xQueueGenericReset
 1841               	xQueueGenericReset:
 1842               	.LFB2:
 1843               	.LM255:
 1844               	.LVL183:
 1845 0744 CF93      		push r28
 1846 0746 DF93      		push r29
 1847               	/* prologue: function */
 1848               	/* frame size = 0 */
 1849               	.LM256:
 1850 0748 EC01      		movw r28,r24
 1851               	.LVL184:
 1852               	.LM257:
 1853               	/* #APP */
 1854               	 ;  285 "../../Source/queue.c" 1
 1855 074a 0FB6      		in		__tmp_reg__, __SREG__
 1856               	 ;  0 "" 2
 1857               	 ;  285 "../../Source/queue.c" 1
 1858 074c F894      		cli
 1859               	 ;  0 "" 2
 1860               	 ;  285 "../../Source/queue.c" 1
 1861 074e 0F92      		push	__tmp_reg__
 1862               	 ;  0 "" 2
 1863               	.LM258:
 1864               	/* #NOAPP */
 1865 0750 EC8D      		ldd r30,Y+28
 1866               	.LVL185:
 1867 0752 2B8D      		ldd r18,Y+27
 1868 0754 E29F      		mul r30,r18
 1869 0756 C001      		movw r24,r0
 1870 0758 1124      		clr r1
 1871 075a 4881      		ld r20,Y
 1872 075c 5981      		ldd r21,Y+1
 1873 075e 840F      		add r24,r20
 1874 0760 951F      		adc r25,r21
 1875 0762 9B83      		std Y+3,r25
 1876 0764 8A83      		std Y+2,r24
 1877               	.LM259:
 1878 0766 1A8E      		std Y+26,__zero_reg__
 1879               	.LM260:
 1880 0768 5D83      		std Y+5,r21
 1881 076a 4C83      		std Y+4,r20
 1882               	.LM261:
 1883 076c 30E0      		ldi r19,lo8(0)
 1884 076e 2150      		subi r18,lo8(-(-1))
 1885 0770 3040      		sbci r19,hi8(-(-1))
 1886 0772 F0E0      		ldi r31,lo8(0)
 1887 0774 2E9F      		mul r18,r30
 1888 0776 C001      		movw r24,r0
 1889 0778 2F9F      		mul r18,r31
 1890 077a 900D      		add r25,r0
 1891 077c 3E9F      		mul r19,r30
 1892 077e 900D      		add r25,r0
 1893 0780 1124      		clr r1
 1894 0782 480F      		add r20,r24
 1895 0784 591F      		adc r21,r25
 1896 0786 5F83      		std Y+7,r21
 1897 0788 4E83      		std Y+6,r20
 1898               	.LM262:
 1899 078a 8FEF      		ldi r24,lo8(-1)
 1900 078c 8D8F      		std Y+29,r24
 1901               	.LM263:
 1902 078e 8E8F      		std Y+30,r24
 1903               	.LM264:
 1904 0790 6623      		tst r22
 1905 0792 01F4      		brne .L123
 1906               	.LM265:
 1907 0794 8885      		ldd r24,Y+8
 1908 0796 8823      		tst r24
 1909 0798 01F0      		breq .L124
 1910               	.LM266:
 1911 079a CE01      		movw r24,r28
 1912 079c 0896      		adiw r24,8
 1913 079e 0E94 0000 		call xTaskRemoveFromEventList
 1914               	.LVL186:
 1915 07a2 8823      		tst r24
 1916 07a4 01F0      		breq .L124
 1917               	.LM267:
 1918 07a6 0E94 0000 		call vPortYield
 1919 07aa 00C0      		rjmp .L124
 1920               	.LVL187:
 1921               	.L123:
 1922               	.LM268:
 1923 07ac CE01      		movw r24,r28
 1924 07ae 0896      		adiw r24,8
 1925 07b0 0E94 0000 		call vListInitialise
 1926               	.LVL188:
 1927               	.LM269:
 1928 07b4 CE01      		movw r24,r28
 1929 07b6 4196      		adiw r24,17
 1930 07b8 0E94 0000 		call vListInitialise
 1931               	.LVL189:
 1932               	.L124:
 1933               	.LM270:
 1934               	/* #APP */
 1935               	 ;  324 "../../Source/queue.c" 1
 1936 07bc 0F90      		pop		__tmp_reg__
 1937               	 ;  0 "" 2
 1938               	 ;  324 "../../Source/queue.c" 1
 1939 07be 0FBE      		out		__SREG__, __tmp_reg__
 1940               	 ;  0 "" 2
 1941               	.LM271:
 1942               	/* #NOAPP */
 1943 07c0 81E0      		ldi r24,lo8(1)
 1944               	/* epilogue start */
 1945 07c2 DF91      		pop r29
 1946 07c4 CF91      		pop r28
 1947               	.LVL190:
 1948 07c6 0895      		ret
 1949               	.LFE2:
 1951               	.global	xQueueGenericCreate
 1953               	xQueueGenericCreate:
 1954               	.LFB3:
 1955               	.LM272:
 1956               	.LVL191:
 1957 07c8 0F93      		push r16
 1958 07ca 1F93      		push r17
 1959 07cc CF93      		push r28
 1960 07ce DF93      		push r29
 1961               	/* prologue: function */
 1962               	/* frame size = 0 */
 1963 07d0 082F      		mov r16,r24
 1964 07d2 162F      		mov r17,r22
 1965               	.LM273:
 1966 07d4 6623      		tst r22
 1967 07d6 01F4      		brne .L127
 1968               	.LVL192:
 1969 07d8 80E0      		ldi r24,lo8(0)
 1970 07da 90E0      		ldi r25,hi8(0)
 1971               	.LVL193:
 1972 07dc 00C0      		rjmp .L128
 1973               	.LVL194:
 1974               	.L127:
 1975               	.LM274:
 1976 07de 689F      		mul r22,r24
 1977 07e0 C001      		movw r24,r0
 1978 07e2 1124      		clr r1
 1979               	.LVL195:
 1980               	.L128:
 1981               	.LM275:
 1982 07e4 4F96      		adiw r24,31
 1983               	.LVL196:
 1984 07e6 0E94 0000 		call pvPortMalloc
 1985               	.LVL197:
 1986 07ea EC01      		movw r28,r24
 1987               	.LM276:
 1988 07ec 0097      		sbiw r24,0
 1989               	.LVL198:
 1990 07ee 01F0      		breq .L129
 1991               	.LBB30:
 1992               	.LBB31:
 1993               	.LM277:
 1994 07f0 1123      		tst r17
 1995 07f2 01F4      		brne .L130
 1996               	.LM278:
 1997 07f4 9983      		std Y+1,r25
 1998 07f6 8883      		st Y,r24
 1999 07f8 00C0      		rjmp .L131
 2000               	.LVL199:
 2001               	.L130:
 2002               	.LM279:
 2003 07fa 4F96      		adiw r24,31
 2004               	.LVL200:
 2005 07fc 9983      		std Y+1,r25
 2006 07fe 8883      		st Y,r24
 2007               	.LVL201:
 2008               	.L131:
 2009               	.LM280:
 2010 0800 0B8F      		std Y+27,r16
 2011               	.LM281:
 2012 0802 1C8F      		std Y+28,r17
 2013               	.LM282:
 2014 0804 CE01      		movw r24,r28
 2015 0806 61E0      		ldi r22,lo8(1)
 2016 0808 0E94 0000 		call xQueueGenericReset
 2017               	.LVL202:
 2018               	.L129:
 2019               	.LBE31:
 2020               	.LBE30:
 2021               	.LM283:
 2022 080c CE01      		movw r24,r28
 2023               	.LVL203:
 2024               	/* epilogue start */
 2025 080e DF91      		pop r29
 2026 0810 CF91      		pop r28
 2027 0812 1F91      		pop r17
 2028               	.LVL204:
 2029 0814 0F91      		pop r16
 2030               	.LVL205:
 2031 0816 0895      		ret
 2032               	.LFE3:
 2218               	.Letext0:
DEFINED SYMBOLS
                            *ABS*:00000000 queue.c
C:\Users\Tintu\AppData\Local\Temp/cckR8ky6.s:2      *ABS*:0000003f __SREG__
C:\Users\Tintu\AppData\Local\Temp/cckR8ky6.s:3      *ABS*:0000003e __SP_H__
C:\Users\Tintu\AppData\Local\Temp/cckR8ky6.s:4      *ABS*:0000003d __SP_L__
C:\Users\Tintu\AppData\Local\Temp/cckR8ky6.s:5      *ABS*:00000034 __CCP__
C:\Users\Tintu\AppData\Local\Temp/cckR8ky6.s:6      *ABS*:00000000 __tmp_reg__
C:\Users\Tintu\AppData\Local\Temp/cckR8ky6.s:7      *ABS*:00000001 __zero_reg__
C:\Users\Tintu\AppData\Local\Temp/cckR8ky6.s:18     .text:00000000 uxQueueMessagesWaiting
C:\Users\Tintu\AppData\Local\Temp/cckR8ky6.s:58     .text:00000010 uxQueueSpacesAvailable
C:\Users\Tintu\AppData\Local\Temp/cckR8ky6.s:100    .text:00000024 uxQueueMessagesWaitingFromISR
C:\Users\Tintu\AppData\Local\Temp/cckR8ky6.s:119    .text:0000002a xQueueIsQueueEmptyFromISR
C:\Users\Tintu\AppData\Local\Temp/cckR8ky6.s:142    .text:0000003a xQueueIsQueueFullFromISR
C:\Users\Tintu\AppData\Local\Temp/cckR8ky6.s:165    .text:0000004c prvCopyDataToQueue
C:\Users\Tintu\AppData\Local\Temp/cckR8ky6.s:276    .text:000000e0 prvCopyDataFromQueue
C:\Users\Tintu\AppData\Local\Temp/cckR8ky6.s:326    .text:0000011c xQueuePeekFromISR
C:\Users\Tintu\AppData\Local\Temp/cckR8ky6.s:372    .text:00000146 xQueueCRReceiveFromISR
C:\Users\Tintu\AppData\Local\Temp/cckR8ky6.s:463    .text:000001bc xQueueCRSendFromISR
C:\Users\Tintu\AppData\Local\Temp/cckR8ky6.s:519    .text:000001fa xQueueCRReceive
C:\Users\Tintu\AppData\Local\Temp/cckR8ky6.s:657    .text:00000284 xQueueCRSend
C:\Users\Tintu\AppData\Local\Temp/cckR8ky6.s:800    .text:000002f0 vQueueDelete
C:\Users\Tintu\AppData\Local\Temp/cckR8ky6.s:816    .text:000002f6 xQueueReceiveFromISR
C:\Users\Tintu\AppData\Local\Temp/cckR8ky6.s:905    .text:00000352 xQueueGiveFromISR
C:\Users\Tintu\AppData\Local\Temp/cckR8ky6.s:982    .text:00000398 xQueueGenericSendFromISR
C:\Users\Tintu\AppData\Local\Temp/cckR8ky6.s:1066   .text:000003f6 prvUnlockQueue
C:\Users\Tintu\AppData\Local\Temp/cckR8ky6.s:1204   .text:0000047a xQueueGenericReceive
C:\Users\Tintu\AppData\Local\Temp/cckR8ky6.s:1545   .text:000005ee xQueueGenericSend
C:\Users\Tintu\AppData\Local\Temp/cckR8ky6.s:1841   .text:00000744 xQueueGenericReset
C:\Users\Tintu\AppData\Local\Temp/cckR8ky6.s:1953   .text:000007c8 xQueueGenericCreate

UNDEFINED SYMBOLS
memcpy
xCoRoutineRemoveFromEventList
vCoRoutineAddToDelayedList
vPortFree
xTaskRemoveFromEventList
vTaskMissedYield
vPortYield
vTaskSetTimeOutState
vTaskSuspendAll
xTaskCheckForTimeOut
vTaskPlaceOnEventList
xTaskResumeAll
vListInitialise
pvPortMalloc
